#include <math.h>
#include <stdio.h>
#include <stdlib.h>
#include <string.h>


int main()
{
//	??????m????m???????? 
//????????n?????n????
 
//???? 
//???m???????????n??????????3?? 

	int m,i,j;
	scanf("%d",&m);

	int n[500];
	for(i=0;i<m;i++)
	{
    	scanf("%d",&n[i]);
	}

	int fm[500];
	int fz[500];
	double sum[500]={0};
	fm[0]=1,fm[1]=2;
	fz[0]=2,fz[1]=3;
	
	for(i=2;i<500;i++)
	{
		fm[i]=fm[i-1]+fm[i-2];
		fz[i]=fz[i-1]+fz[i-2];
	}

	for(i=0;i<m;i++)
	{
		for(j=0;j<n[i];j++)
		{
			sum[i]+=(fz[j]*1.0)/(fm[j]*1.0);
		}

		printf("%.3lf\n",sum[i]);
	}

	return 0;
}
